target datalayout = "e-m:e-p270:32:32-p271:32:32-p272:64:64-i64:64-i128:128-f80:128-n8:16:32:64-S128"
target triple = "x86_64-unknown-linux-gnu"

%class.btDiscreteDynamicsWorld = type <{ %class.btDynamicsWorld, %class.btAlignedObjectArray.0, ptr, ptr, ptr, %class.btAlignedObjectArray.0, %class.btAlignedObjectArray.4, %class.btVector3, float, float, i8, i8, i8, i8, [4 x i8], %class.btAlignedObjectArray.8, i32, i8, [3 x i8], %class.btAlignedObjectArray.12, %class.btSpinMutex, [4 x i8] }>
%class.btDynamicsWorld = type { %class.btCollisionWorld.base, ptr, ptr, ptr, %struct.btContactSolverInfo }
%class.btCollisionWorld.base = type <{ ptr, %class.btAlignedObjectArray, ptr, %struct.btDispatcherInfo, ptr, ptr, i8 }>
%class.btAlignedObjectArray = type <{ %class.btAlignedAllocator, [3 x i8], i32, i32, [4 x i8], ptr, i8, [7 x i8] }>
%class.btAlignedAllocator = type { i8 }
%struct.btDispatcherInfo = type <{ float, i32, i32, float, i8, [7 x i8], ptr, i8, i8, i8, i8, float, i8, [3 x i8], float, i8, [7 x i8] }>
%struct.btContactSolverInfo = type { %struct.btContactSolverInfoData }
%struct.btContactSolverInfoData = type { float, float, float, float, float, i32, float, float, float, float, float, float, float, float, float, float, i32, float, float, float, float, float, i32, i32, i32, float, float, float, float, i8, i8, i32, i32 }
%class.btAlignedObjectArray.0 = type <{ %class.btAlignedAllocator.1, [3 x i8], i32, i32, [4 x i8], ptr, i8, [7 x i8] }>
%class.btAlignedAllocator.1 = type { i8 }
%class.btAlignedObjectArray.4 = type <{ %class.btAlignedAllocator.5, [3 x i8], i32, i32, [4 x i8], ptr, i8, [7 x i8] }>
%class.btAlignedAllocator.5 = type { i8 }
%class.btVector3 = type { [4 x float] }
%class.btAlignedObjectArray.8 = type <{ %class.btAlignedAllocator.9, [3 x i8], i32, i32, [4 x i8], ptr, i8, [7 x i8] }>
%class.btAlignedAllocator.9 = type { i8 }
%class.btAlignedObjectArray.12 = type <{ %class.btAlignedAllocator.13, [3 x i8], i32, i32, [4 x i8], ptr, i8, [7 x i8] }>
%class.btAlignedAllocator.13 = type { i8 }
%class.btSpinMutex = type { i32 }
%class.btChunk = type { i32, i32, ptr, i32, i32 }
%struct.btDynamicsWorldFloatData = type { %struct.btContactSolverInfoFloatData, %struct.btVector3FloatData }
%struct.btContactSolverInfoFloatData = type { float, float, float, float, float, float, float, float, float, float, float, float, float, float, float, float, float, i32, i32, i32, i32, i32 }
%struct.btVector3FloatData = type { [4 x float] }

@.str.13 = private unnamed_addr constant [25 x i8] c"btDynamicsWorldFloatData\00", align 1

; Function Attrs: mustprogress nounwind uwtable
define linkonce_odr dso_local noundef nonnull align 4 dereferenceable(128) ptr @_ZN15btDynamicsWorld13getSolverInfoEv(ptr noundef nonnull align 8 dereferenceable(280) %this) #1 comdat align 2 {
entry:
  %this.addr = alloca ptr, align 8
  store ptr %this, ptr %this.addr, align 8
  %this1 = load ptr, ptr %this.addr, align 8
  %m_solverInfo = getelementptr inbounds %class.btDynamicsWorld, ptr %this1, i32 0, i32 4
  ret ptr %m_solverInfo
}

; Function Attrs: mustprogress nounwind uwtable
define linkonce_odr dso_local void @_ZNK9btVector39serializeER18btVector3FloatData(ptr noundef nonnull align 4 dereferenceable(16) %this, ptr noundef nonnull align 4 dereferenceable(16) %dataOut) #1 comdat align 2 {
entry:
  %this.addr = alloca ptr, align 8
  %dataOut.addr = alloca ptr, align 8
  %i = alloca i32, align 4
  store ptr %this, ptr %this.addr, align 8
  store ptr %dataOut, ptr %dataOut.addr, align 8
  %this1 = load ptr, ptr %this.addr, align 8
  store i32 0, ptr %i, align 4
  br label %for.cond

for.cond:                                         ; preds = %for.inc, %entry
  %0 = load i32, ptr %i, align 4
  %cmp = icmp slt i32 %0, 4
  br i1 %cmp, label %for.body, label %for.end

for.body:                                         ; preds = %for.cond
  %m_floats = getelementptr inbounds %class.btVector3, ptr %this1, i32 0, i32 0
  %1 = load i32, ptr %i, align 4
  %idxprom = sext i32 %1 to i64
  %arrayidx = getelementptr inbounds [4 x float], ptr %m_floats, i64 0, i64 %idxprom
  %2 = load float, ptr %arrayidx, align 4
  %3 = load ptr, ptr %dataOut.addr, align 8
  %m_floats2 = getelementptr inbounds %struct.btVector3FloatData, ptr %3, i32 0, i32 0
  %4 = load i32, ptr %i, align 4
  %idxprom3 = sext i32 %4 to i64
  %arrayidx4 = getelementptr inbounds [4 x float], ptr %m_floats2, i64 0, i64 %idxprom3
  store float %2, ptr %arrayidx4, align 4
  br label %for.inc

for.inc:                                          ; preds = %for.body
  %5 = load i32, ptr %i, align 4
  %inc = add nsw i32 %5, 1
  store i32 %inc, ptr %i, align 4
  br label %for.cond, !llvm.loop !31

for.end:                                          ; preds = %for.cond
  ret void
}

; Function Attrs: mustprogress uwtable
define dso_local void @_ZN23btDiscreteDynamicsWorld26serializeDynamicsWorldInfoEP12btSerializer(ptr noundef nonnull align 8 dereferenceable(508) %this, ptr noundef %serializer) #2 align 2 {
entry:
  %this.addr = alloca ptr, align 8
  %serializer.addr = alloca ptr, align 8
  %len = alloca i32, align 4
  %chunk = alloca ptr, align 8
  %worldInfo = alloca ptr, align 8
  %structType = alloca ptr, align 8
  store ptr %this, ptr %this.addr, align 8
  store ptr %serializer, ptr %serializer.addr, align 8
  %this1 = load ptr, ptr %this.addr, align 8
  store i32 104, ptr %len, align 4
  %0 = load ptr, ptr %serializer.addr, align 8
  %1 = load i32, ptr %len, align 4
  %conv = sext i32 %1 to i64
  %vtable = load ptr, ptr %0, align 8
  %vfn = getelementptr inbounds ptr, ptr %vtable, i64 4
  %2 = load ptr, ptr %vfn, align 8
  %call = call noundef ptr %2(ptr noundef nonnull align 8 dereferenceable(8) %0, i64 noundef %conv, i32 noundef 1)
  store ptr %call, ptr %chunk, align 8
  %3 = load ptr, ptr %chunk, align 8
  %m_oldPtr = getelementptr inbounds %class.btChunk, ptr %3, i32 0, i32 2
  %4 = load ptr, ptr %m_oldPtr, align 8
  store ptr %4, ptr %worldInfo, align 8
  %5 = load ptr, ptr %worldInfo, align 8
  %6 = load i32, ptr %len, align 4
  %conv2 = sext i32 %6 to i64
  call void @llvm.memset.p0.i64(ptr align 4 %5, i8 0, i64 %conv2, i1 false)
  %m_gravity = getelementptr inbounds %class.btDiscreteDynamicsWorld, ptr %this1, i32 0, i32 7
  %7 = load ptr, ptr %worldInfo, align 8
  %m_gravity3 = getelementptr inbounds %struct.btDynamicsWorldFloatData, ptr %7, i32 0, i32 1
  call void @_ZNK9btVector39serializeER18btVector3FloatData(ptr noundef nonnull align 4 dereferenceable(16) %m_gravity, ptr noundef nonnull align 4 dereferenceable(16) %m_gravity3)
  %call4 = call noundef nonnull align 4 dereferenceable(128) ptr @_ZN15btDynamicsWorld13getSolverInfoEv(ptr noundef nonnull align 8 dereferenceable(280) %this1)
  %m_tau = getelementptr inbounds %struct.btContactSolverInfoData, ptr %call4, i32 0, i32 0
  %8 = load float, ptr %m_tau, align 4
  %9 = load ptr, ptr %worldInfo, align 8
  %m_solverInfo = getelementptr inbounds %struct.btDynamicsWorldFloatData, ptr %9, i32 0, i32 0
  %m_tau5 = getelementptr inbounds %struct.btContactSolverInfoFloatData, ptr %m_solverInfo, i32 0, i32 0
  store float %8, ptr %m_tau5, align 4
  %call6 = call noundef nonnull align 4 dereferenceable(128) ptr @_ZN15btDynamicsWorld13getSolverInfoEv(ptr noundef nonnull align 8 dereferenceable(280) %this1)
  %m_damping = getelementptr inbounds %struct.btContactSolverInfoData, ptr %call6, i32 0, i32 1
  %10 = load float, ptr %m_damping, align 4
  %11 = load ptr, ptr %worldInfo, align 8
  %m_solverInfo7 = getelementptr inbounds %struct.btDynamicsWorldFloatData, ptr %11, i32 0, i32 0
  %m_damping8 = getelementptr inbounds %struct.btContactSolverInfoFloatData, ptr %m_solverInfo7, i32 0, i32 1
  store float %10, ptr %m_damping8, align 4
  %call9 = call noundef nonnull align 4 dereferenceable(128) ptr @_ZN15btDynamicsWorld13getSolverInfoEv(ptr noundef nonnull align 8 dereferenceable(280) %this1)
  %m_friction = getelementptr inbounds %struct.btContactSolverInfoData, ptr %call9, i32 0, i32 2
  %12 = load float, ptr %m_friction, align 4
  %13 = load ptr, ptr %worldInfo, align 8
  %m_solverInfo10 = getelementptr inbounds %struct.btDynamicsWorldFloatData, ptr %13, i32 0, i32 0
  %m_friction11 = getelementptr inbounds %struct.btContactSolverInfoFloatData, ptr %m_solverInfo10, i32 0, i32 2
  store float %12, ptr %m_friction11, align 4
  %call12 = call noundef nonnull align 4 dereferenceable(128) ptr @_ZN15btDynamicsWorld13getSolverInfoEv(ptr noundef nonnull align 8 dereferenceable(280) %this1)
  %m_timeStep = getelementptr inbounds %struct.btContactSolverInfoData, ptr %call12, i32 0, i32 3
  %14 = load float, ptr %m_timeStep, align 4
  %15 = load ptr, ptr %worldInfo, align 8
  %m_solverInfo13 = getelementptr inbounds %struct.btDynamicsWorldFloatData, ptr %15, i32 0, i32 0
  %m_timeStep14 = getelementptr inbounds %struct.btContactSolverInfoFloatData, ptr %m_solverInfo13, i32 0, i32 3
  store float %14, ptr %m_timeStep14, align 4
  %call15 = call noundef nonnull align 4 dereferenceable(128) ptr @_ZN15btDynamicsWorld13getSolverInfoEv(ptr noundef nonnull align 8 dereferenceable(280) %this1)
  %m_restitution = getelementptr inbounds %struct.btContactSolverInfoData, ptr %call15, i32 0, i32 4
  %16 = load float, ptr %m_restitution, align 4
  %17 = load ptr, ptr %worldInfo, align 8
  %m_solverInfo16 = getelementptr inbounds %struct.btDynamicsWorldFloatData, ptr %17, i32 0, i32 0
  %m_restitution17 = getelementptr inbounds %struct.btContactSolverInfoFloatData, ptr %m_solverInfo16, i32 0, i32 4
  store float %16, ptr %m_restitution17, align 4
  %call18 = call noundef nonnull align 4 dereferenceable(128) ptr @_ZN15btDynamicsWorld13getSolverInfoEv(ptr noundef nonnull align 8 dereferenceable(280) %this1)
  %m_maxErrorReduction = getelementptr inbounds %struct.btContactSolverInfoData, ptr %call18, i32 0, i32 6
  %18 = load float, ptr %m_maxErrorReduction, align 4
  %19 = load ptr, ptr %worldInfo, align 8
  %m_solverInfo19 = getelementptr inbounds %struct.btDynamicsWorldFloatData, ptr %19, i32 0, i32 0
  %m_maxErrorReduction20 = getelementptr inbounds %struct.btContactSolverInfoFloatData, ptr %m_solverInfo19, i32 0, i32 5
  store float %18, ptr %m_maxErrorReduction20, align 4
  %call21 = call noundef nonnull align 4 dereferenceable(128) ptr @_ZN15btDynamicsWorld13getSolverInfoEv(ptr noundef nonnull align 8 dereferenceable(280) %this1)
  %m_sor = getelementptr inbounds %struct.btContactSolverInfoData, ptr %call21, i32 0, i32 7
  %20 = load float, ptr %m_sor, align 4
  %21 = load ptr, ptr %worldInfo, align 8
  %m_solverInfo22 = getelementptr inbounds %struct.btDynamicsWorldFloatData, ptr %21, i32 0, i32 0
  %m_sor23 = getelementptr inbounds %struct.btContactSolverInfoFloatData, ptr %m_solverInfo22, i32 0, i32 6
  store float %20, ptr %m_sor23, align 4
  %call24 = call noundef nonnull align 4 dereferenceable(128) ptr @_ZN15btDynamicsWorld13getSolverInfoEv(ptr noundef nonnull align 8 dereferenceable(280) %this1)
  %m_erp = getelementptr inbounds %struct.btContactSolverInfoData, ptr %call24, i32 0, i32 8
  %22 = load float, ptr %m_erp, align 4
  %23 = load ptr, ptr %worldInfo, align 8
  %m_solverInfo25 = getelementptr inbounds %struct.btDynamicsWorldFloatData, ptr %23, i32 0, i32 0
  %m_erp26 = getelementptr inbounds %struct.btContactSolverInfoFloatData, ptr %m_solverInfo25, i32 0, i32 7
  store float %22, ptr %m_erp26, align 4
  %call27 = call noundef nonnull align 4 dereferenceable(128) ptr @_ZN15btDynamicsWorld13getSolverInfoEv(ptr noundef nonnull align 8 dereferenceable(280) %this1)
  %m_erp2 = getelementptr inbounds %struct.btContactSolverInfoData, ptr %call27, i32 0, i32 9
  %24 = load float, ptr %m_erp2, align 4
  %25 = load ptr, ptr %worldInfo, align 8
  %m_solverInfo28 = getelementptr inbounds %struct.btDynamicsWorldFloatData, ptr %25, i32 0, i32 0
  %m_erp229 = getelementptr inbounds %struct.btContactSolverInfoFloatData, ptr %m_solverInfo28, i32 0, i32 8
  store float %24, ptr %m_erp229, align 4
  %call30 = call noundef nonnull align 4 dereferenceable(128) ptr @_ZN15btDynamicsWorld13getSolverInfoEv(ptr noundef nonnull align 8 dereferenceable(280) %this1)
  %m_globalCfm = getelementptr inbounds %struct.btContactSolverInfoData, ptr %call30, i32 0, i32 13
  %26 = load float, ptr %m_globalCfm, align 4
  %27 = load ptr, ptr %worldInfo, align 8
  %m_solverInfo31 = getelementptr inbounds %struct.btDynamicsWorldFloatData, ptr %27, i32 0, i32 0
  %m_globalCfm32 = getelementptr inbounds %struct.btContactSolverInfoFloatData, ptr %m_solverInfo31, i32 0, i32 9
  store float %26, ptr %m_globalCfm32, align 4
  %call33 = call noundef nonnull align 4 dereferenceable(128) ptr @_ZN15btDynamicsWorld13getSolverInfoEv(ptr noundef nonnull align 8 dereferenceable(280) %this1)
  %m_splitImpulsePenetrationThreshold = getelementptr inbounds %struct.btContactSolverInfoData, ptr %call33, i32 0, i32 17
  %28 = load float, ptr %m_splitImpulsePenetrationThreshold, align 4
  %29 = load ptr, ptr %worldInfo, align 8
  %m_solverInfo34 = getelementptr inbounds %struct.btDynamicsWorldFloatData, ptr %29, i32 0, i32 0
  %m_splitImpulsePenetrationThreshold35 = getelementptr inbounds %struct.btContactSolverInfoFloatData, ptr %m_solverInfo34, i32 0, i32 10
  store float %28, ptr %m_splitImpulsePenetrationThreshold35, align 4
  %call36 = call noundef nonnull align 4 dereferenceable(128) ptr @_ZN15btDynamicsWorld13getSolverInfoEv(ptr noundef nonnull align 8 dereferenceable(280) %this1)
  %m_splitImpulseTurnErp = getelementptr inbounds %struct.btContactSolverInfoData, ptr %call36, i32 0, i32 18
  %30 = load float, ptr %m_splitImpulseTurnErp, align 4
  %31 = load ptr, ptr %worldInfo, align 8
  %m_solverInfo37 = getelementptr inbounds %struct.btDynamicsWorldFloatData, ptr %31, i32 0, i32 0
  %m_splitImpulseTurnErp38 = getelementptr inbounds %struct.btContactSolverInfoFloatData, ptr %m_solverInfo37, i32 0, i32 11
  store float %30, ptr %m_splitImpulseTurnErp38, align 4
  %call39 = call noundef nonnull align 4 dereferenceable(128) ptr @_ZN15btDynamicsWorld13getSolverInfoEv(ptr noundef nonnull align 8 dereferenceable(280) %this1)
  %m_linearSlop = getelementptr inbounds %struct.btContactSolverInfoData, ptr %call39, i32 0, i32 19
  %32 = load float, ptr %m_linearSlop, align 4
  %33 = load ptr, ptr %worldInfo, align 8
  %m_solverInfo40 = getelementptr inbounds %struct.btDynamicsWorldFloatData, ptr %33, i32 0, i32 0
  %m_linearSlop41 = getelementptr inbounds %struct.btContactSolverInfoFloatData, ptr %m_solverInfo40, i32 0, i32 12
  store float %32, ptr %m_linearSlop41, align 4
  %call42 = call noundef nonnull align 4 dereferenceable(128) ptr @_ZN15btDynamicsWorld13getSolverInfoEv(ptr noundef nonnull align 8 dereferenceable(280) %this1)
  %m_warmstartingFactor = getelementptr inbounds %struct.btContactSolverInfoData, ptr %call42, i32 0, i32 20
  %34 = load float, ptr %m_warmstartingFactor, align 4
  %35 = load ptr, ptr %worldInfo, align 8
  %m_solverInfo43 = getelementptr inbounds %struct.btDynamicsWorldFloatData, ptr %35, i32 0, i32 0
  %m_warmstartingFactor44 = getelementptr inbounds %struct.btContactSolverInfoFloatData, ptr %m_solverInfo43, i32 0, i32 13
  store float %34, ptr %m_warmstartingFactor44, align 4
  %call45 = call noundef nonnull align 4 dereferenceable(128) ptr @_ZN15btDynamicsWorld13getSolverInfoEv(ptr noundef nonnull align 8 dereferenceable(280) %this1)
  %m_maxGyroscopicForce = getelementptr inbounds %struct.btContactSolverInfoData, ptr %call45, i32 0, i32 25
  %36 = load float, ptr %m_maxGyroscopicForce, align 4
  %37 = load ptr, ptr %worldInfo, align 8
  %m_solverInfo46 = getelementptr inbounds %struct.btDynamicsWorldFloatData, ptr %37, i32 0, i32 0
  %m_maxGyroscopicForce47 = getelementptr inbounds %struct.btContactSolverInfoFloatData, ptr %m_solverInfo46, i32 0, i32 15
  store float %36, ptr %m_maxGyroscopicForce47, align 4
  %call48 = call noundef nonnull align 4 dereferenceable(128) ptr @_ZN15btDynamicsWorld13getSolverInfoEv(ptr noundef nonnull align 8 dereferenceable(280) %this1)
  %m_singleAxisRollingFrictionThreshold = getelementptr inbounds %struct.btContactSolverInfoData, ptr %call48, i32 0, i32 26
  %38 = load float, ptr %m_singleAxisRollingFrictionThreshold, align 4
  %39 = load ptr, ptr %worldInfo, align 8
  %m_solverInfo49 = getelementptr inbounds %struct.btDynamicsWorldFloatData, ptr %39, i32 0, i32 0
  %m_singleAxisRollingFrictionThreshold50 = getelementptr inbounds %struct.btContactSolverInfoFloatData, ptr %m_solverInfo49, i32 0, i32 16
  store float %38, ptr %m_singleAxisRollingFrictionThreshold50, align 4
  %call51 = call noundef nonnull align 4 dereferenceable(128) ptr @_ZN15btDynamicsWorld13getSolverInfoEv(ptr noundef nonnull align 8 dereferenceable(280) %this1)
  %m_numIterations = getelementptr inbounds %struct.btContactSolverInfoData, ptr %call51, i32 0, i32 5
  %40 = load i32, ptr %m_numIterations, align 4
  %41 = load ptr, ptr %worldInfo, align 8
  %m_solverInfo52 = getelementptr inbounds %struct.btDynamicsWorldFloatData, ptr %41, i32 0, i32 0
  %m_numIterations53 = getelementptr inbounds %struct.btContactSolverInfoFloatData, ptr %m_solverInfo52, i32 0, i32 17
  store i32 %40, ptr %m_numIterations53, align 4
  %call54 = call noundef nonnull align 4 dereferenceable(128) ptr @_ZN15btDynamicsWorld13getSolverInfoEv(ptr noundef nonnull align 8 dereferenceable(280) %this1)
  %m_solverMode = getelementptr inbounds %struct.btContactSolverInfoData, ptr %call54, i32 0, i32 22
  %42 = load i32, ptr %m_solverMode, align 4
  %43 = load ptr, ptr %worldInfo, align 8
  %m_solverInfo55 = getelementptr inbounds %struct.btDynamicsWorldFloatData, ptr %43, i32 0, i32 0
  %m_solverMode56 = getelementptr inbounds %struct.btContactSolverInfoFloatData, ptr %m_solverInfo55, i32 0, i32 18
  store i32 %42, ptr %m_solverMode56, align 4
  %call57 = call noundef nonnull align 4 dereferenceable(128) ptr @_ZN15btDynamicsWorld13getSolverInfoEv(ptr noundef nonnull align 8 dereferenceable(280) %this1)
  %m_restingContactRestitutionThreshold = getelementptr inbounds %struct.btContactSolverInfoData, ptr %call57, i32 0, i32 23
  %44 = load i32, ptr %m_restingContactRestitutionThreshold, align 4
  %45 = load ptr, ptr %worldInfo, align 8
  %m_solverInfo58 = getelementptr inbounds %struct.btDynamicsWorldFloatData, ptr %45, i32 0, i32 0
  %m_restingContactRestitutionThreshold59 = getelementptr inbounds %struct.btContactSolverInfoFloatData, ptr %m_solverInfo58, i32 0, i32 19
  store i32 %44, ptr %m_restingContactRestitutionThreshold59, align 4
  %call60 = call noundef nonnull align 4 dereferenceable(128) ptr @_ZN15btDynamicsWorld13getSolverInfoEv(ptr noundef nonnull align 8 dereferenceable(280) %this1)
  %m_minimumSolverBatchSize = getelementptr inbounds %struct.btContactSolverInfoData, ptr %call60, i32 0, i32 24
  %46 = load i32, ptr %m_minimumSolverBatchSize, align 4
  %47 = load ptr, ptr %worldInfo, align 8
  %m_solverInfo61 = getelementptr inbounds %struct.btDynamicsWorldFloatData, ptr %47, i32 0, i32 0
  %m_minimumSolverBatchSize62 = getelementptr inbounds %struct.btContactSolverInfoFloatData, ptr %m_solverInfo61, i32 0, i32 20
  store i32 %46, ptr %m_minimumSolverBatchSize62, align 4
  %call63 = call noundef nonnull align 4 dereferenceable(128) ptr @_ZN15btDynamicsWorld13getSolverInfoEv(ptr noundef nonnull align 8 dereferenceable(280) %this1)
  %m_splitImpulse = getelementptr inbounds %struct.btContactSolverInfoData, ptr %call63, i32 0, i32 16
  %48 = load i32, ptr %m_splitImpulse, align 4
  %49 = load ptr, ptr %worldInfo, align 8
  %m_solverInfo64 = getelementptr inbounds %struct.btDynamicsWorldFloatData, ptr %49, i32 0, i32 0
  %m_splitImpulse65 = getelementptr inbounds %struct.btContactSolverInfoFloatData, ptr %m_solverInfo64, i32 0, i32 21
  store i32 %48, ptr %m_splitImpulse65, align 4
  store ptr @.str.13, ptr %structType, align 8
  %50 = load ptr, ptr %serializer.addr, align 8
  %51 = load ptr, ptr %chunk, align 8
  %52 = load ptr, ptr %structType, align 8
  %53 = load ptr, ptr %worldInfo, align 8
  %vtable66 = load ptr, ptr %50, align 8
  %vfn67 = getelementptr inbounds ptr, ptr %vtable66, i64 5
  %54 = load ptr, ptr %vfn67, align 8
  call void %54(ptr noundef nonnull align 8 dereferenceable(8) %50, ptr noundef %51, ptr noundef %52, i32 noundef 1145853764, ptr noundef %53)
  ret void
}