; Function Attrs: mustprogress uwtable
define dso_local void @_ZN23btDiscreteDynamicsWorld26serializeDynamicsWorldInfoEP12btSerializer(ptr nocapture noundef nonnull readonly align 8 dereferenceable(508) %this, ptr noundef %serializer) local_unnamed_addr #0 align 2 {
entry:
  %vtable = load ptr, ptr %serializer, align 8
  %vfn = getelementptr inbounds i8, ptr %vtable, i64 32
  %0 = load ptr, ptr %vfn, align 8
  %call = tail call noundef ptr %0(ptr noundef nonnull align 8 dereferenceable(8) %serializer, i64 noundef 104, i32 noundef 1)
  %m_oldPtr = getelementptr inbounds i8, ptr %call, i64 8
  %1 = load ptr, ptr %m_oldPtr, align 8
  tail call void @llvm.memset.p0.i64(ptr noundef nonnull align 4 dereferenceable(104) %1, i8 0, i64 104, i1 false)
  %m_gravity = getelementptr inbounds i8, ptr %this, i64 400
  %m_gravity3 = getelementptr inbounds i8, ptr %1, i64 88
  br label %for.body.i

for.body.i:                                       ; preds = %for.body.i, %entry
  %indvars.iv.i = phi i64 [ 0, %entry ], [ %indvars.iv.next.i, %for.body.i ]
  %arrayidx.i = getelementptr inbounds [4 x float], ptr %m_gravity, i64 0, i64 %indvars.iv.i
  %2 = load float, ptr %arrayidx.i, align 4
  %arrayidx4.i = getelementptr inbounds [4 x float], ptr %m_gravity3, i64 0, i64 %indvars.iv.i
  store float %2, ptr %arrayidx4.i, align 4
  %indvars.iv.next.i = add nuw nsw i64 %indvars.iv.i, 1
  %exitcond.not.i = icmp eq i64 %indvars.iv.next.i, 4
  br i1 %exitcond.not.i, label %_ZNK9btVector39serializeER18btVector3FloatData.exit, label %for.body.i, !llvm.loop !85

_ZNK9btVector39serializeER18btVector3FloatData.exit: ; preds = %for.body.i
  %m_solverInfo.i = getelementptr inbounds i8, ptr %this, i64 152
  %3 = load float, ptr %m_solverInfo.i, align 8
  store float %3, ptr %1, align 4
  %m_damping = getelementptr inbounds i8, ptr %this, i64 156
  %4 = load float, ptr %m_damping, align 4
  %m_damping8 = getelementptr inbounds i8, ptr %1, i64 4
  store float %4, ptr %m_damping8, align 4
  %m_friction = getelementptr inbounds i8, ptr %this, i64 160
  %5 = load float, ptr %m_friction, align 8
  %m_friction11 = getelementptr inbounds i8, ptr %1, i64 8
  store float %5, ptr %m_friction11, align 4
  %m_timeStep = getelementptr inbounds i8, ptr %this, i64 164
  %6 = load float, ptr %m_timeStep, align 4
  %m_timeStep14 = getelementptr inbounds i8, ptr %1, i64 12
  store float %6, ptr %m_timeStep14, align 4
  %m_restitution = getelementptr inbounds i8, ptr %this, i64 168
  %7 = load float, ptr %m_restitution, align 8
  %m_restitution17 = getelementptr inbounds i8, ptr %1, i64 16
  store float %7, ptr %m_restitution17, align 4
  %m_maxErrorReduction = getelementptr inbounds i8, ptr %this, i64 176
  %8 = load float, ptr %m_maxErrorReduction, align 8
  %m_maxErrorReduction20 = getelementptr inbounds i8, ptr %1, i64 20
  store float %8, ptr %m_maxErrorReduction20, align 4
  %m_sor = getelementptr inbounds i8, ptr %this, i64 180
  %9 = load float, ptr %m_sor, align 4
  %m_sor23 = getelementptr inbounds i8, ptr %1, i64 24
  store float %9, ptr %m_sor23, align 4
  %m_erp = getelementptr inbounds i8, ptr %this, i64 184
  %10 = load float, ptr %m_erp, align 8
  %m_erp26 = getelementptr inbounds i8, ptr %1, i64 28
  store float %10, ptr %m_erp26, align 4
  %m_erp2 = getelementptr inbounds i8, ptr %this, i64 188
  %11 = load float, ptr %m_erp2, align 4
  %m_erp229 = getelementptr inbounds i8, ptr %1, i64 32
  store float %11, ptr %m_erp229, align 4
  %m_globalCfm = getelementptr inbounds i8, ptr %this, i64 204
  %12 = load float, ptr %m_globalCfm, align 4
  %m_globalCfm32 = getelementptr inbounds i8, ptr %1, i64 36
  store float %12, ptr %m_globalCfm32, align 4
  %m_splitImpulsePenetrationThreshold = getelementptr inbounds i8, ptr %this, i64 220
  %13 = load float, ptr %m_splitImpulsePenetrationThreshold, align 4
  %m_splitImpulsePenetrationThreshold35 = getelementptr inbounds i8, ptr %1, i64 40
  store float %13, ptr %m_splitImpulsePenetrationThreshold35, align 4
  %m_splitImpulseTurnErp = getelementptr inbounds i8, ptr %this, i64 224
  %14 = load float, ptr %m_splitImpulseTurnErp, align 8
  %m_splitImpulseTurnErp38 = getelementptr inbounds i8, ptr %1, i64 44
  store float %14, ptr %m_splitImpulseTurnErp38, align 4
  %m_linearSlop = getelementptr inbounds i8, ptr %this, i64 228
  %15 = load float, ptr %m_linearSlop, align 4
  %m_linearSlop41 = getelementptr inbounds i8, ptr %1, i64 48
  store float %15, ptr %m_linearSlop41, align 4
  %m_warmstartingFactor = getelementptr inbounds i8, ptr %this, i64 232
  %16 = load float, ptr %m_warmstartingFactor, align 8
  %m_warmstartingFactor44 = getelementptr inbounds i8, ptr %1, i64 52
  store float %16, ptr %m_warmstartingFactor44, align 4
  %m_maxGyroscopicForce = getelementptr inbounds i8, ptr %this, i64 252
  %17 = load float, ptr %m_maxGyroscopicForce, align 4
  %m_maxGyroscopicForce47 = getelementptr inbounds i8, ptr %1, i64 60
  store float %17, ptr %m_maxGyroscopicForce47, align 4
  %m_singleAxisRollingFrictionThreshold = getelementptr inbounds i8, ptr %this, i64 256
  %18 = load float, ptr %m_singleAxisRollingFrictionThreshold, align 8
  %m_singleAxisRollingFrictionThreshold50 = getelementptr inbounds i8, ptr %1, i64 64
  store float %18, ptr %m_singleAxisRollingFrictionThreshold50, align 4
  %m_numIterations = getelementptr inbounds i8, ptr %this, i64 172
  %19 = load i32, ptr %m_numIterations, align 4
  %m_numIterations53 = getelementptr inbounds i8, ptr %1, i64 68
  store i32 %19, ptr %m_numIterations53, align 4
  %m_solverMode = getelementptr inbounds i8, ptr %this, i64 240
  %20 = load i32, ptr %m_solverMode, align 8
  %m_solverMode56 = getelementptr inbounds i8, ptr %1, i64 72
  store i32 %20, ptr %m_solverMode56, align 4
  %m_restingContactRestitutionThreshold = getelementptr inbounds i8, ptr %this, i64 244
  %21 = load i32, ptr %m_restingContactRestitutionThreshold, align 4
  %m_restingContactRestitutionThreshold59 = getelementptr inbounds i8, ptr %1, i64 76
  store i32 %21, ptr %m_restingContactRestitutionThreshold59, align 4
  %m_minimumSolverBatchSize = getelementptr inbounds i8, ptr %this, i64 248
  %22 = load i32, ptr %m_minimumSolverBatchSize, align 8
  %m_minimumSolverBatchSize62 = getelementptr inbounds i8, ptr %1, i64 80
  store i32 %22, ptr %m_minimumSolverBatchSize62, align 4
  %m_splitImpulse = getelementptr inbounds i8, ptr %this, i64 216
  %23 = load i32, ptr %m_splitImpulse, align 8
  %m_splitImpulse65 = getelementptr inbounds i8, ptr %1, i64 84
  store i32 %23, ptr %m_splitImpulse65, align 4
  %vtable66 = load ptr, ptr %serializer, align 8
  %vfn67 = getelementptr inbounds i8, ptr %vtable66, i64 40
  %24 = load ptr, ptr %vfn67, align 8
  tail call void %24(ptr noundef nonnull align 8 dereferenceable(8) %serializer, ptr noundef %call, ptr noundef nonnull @.str.13, i32 noundef 1145853764, ptr noundef nonnull %1)
  ret void
}